; Function Attrs: nounwind uwtable
define nonnull ptr @l_Std_Sat_AIG_toCNF_State_eval___rarg___boxed(ptr noundef %0, ptr noundef %1) #0 {
  %3 = getelementptr inbounds nuw i8, ptr %1, i64 8
  %4 = load ptr, ptr %3, align 8, !tbaa !9
  %5 = ptrtoint ptr %4 to i64
  %6 = and i64 %5, 1
  %.not.i = icmp eq i64 %6, 0
  br i1 %.not.i, label %7, label %lean_inc.exit.i

7:                                                ; preds = %2
  %.val.i.i = load i32, ptr %4, align 4, !tbaa !4
  %8 = icmp sgt i32 %.val.i.i, 0
  br i1 %8, label %9, label %11, !prof !13

9:                                                ; preds = %7
  %10 = add nuw i32 %.val.i.i, 1
  store i32 %10, ptr %4, align 4, !tbaa !4
  br label %lean_inc.exit.i

11:                                               ; preds = %7
  %.not.i5.i = icmp eq i32 %.val.i.i, 0
  br i1 %.not.i5.i, label %lean_inc.exit.i, label %12

12:                                               ; preds = %11
  tail call void @lean_inc_ref_cold(ptr noundef nonnull %4) #3
  br label %lean_inc.exit.i

lean_inc.exit.i:                                  ; preds = %12, %11, %9, %2
  %13 = ptrtoint ptr %1 to i64
  %14 = and i64 %13, 1
  %.not6.i = icmp eq i64 %14, 0
  br i1 %.not6.i, label %15, label %l_Std_Sat_AIG_toCNF_State_eval___rarg.exit

15:                                               ; preds = %lean_inc.exit.i
  %16 = load i32, ptr %1, align 4, !tbaa !4
  %17 = icmp sgt i32 %16, 1
  br i1 %17, label %18, label %20, !prof !13

18:                                               ; preds = %15
  %19 = add nsw i32 %16, -1
  store i32 %19, ptr %1, align 4, !tbaa !4
  br label %l_Std_Sat_AIG_toCNF_State_eval___rarg.exit

20:                                               ; preds = %15
  %.not.i.i = icmp eq i32 %16, 0
  br i1 %.not.i.i, label %l_Std_Sat_AIG_toCNF_State_eval___rarg.exit, label %21

21:                                               ; preds = %20
  tail call void @lean_dec_ref_cold(ptr noundef nonnull %1) #3
  br label %l_Std_Sat_AIG_toCNF_State_eval___rarg.exit

l_Std_Sat_AIG_toCNF_State_eval___rarg.exit:       ; preds = %lean_inc.exit.i, %18, %20, %21
  %22 = tail call zeroext i8 @l_Std_Sat_CNF_eval___rarg(ptr noundef %0, ptr noundef %4) #3
  %23 = zext i8 %22 to i64
  %24 = shl nuw nsw i64 %23, 1
  %25 = or disjoint i64 %24, 1
  %26 = inttoptr i64 %25 to ptr
  ret ptr %26
}